target datalayout = "e-m:e-p270:32:32-p271:32:32-p272:64:64-i64:64-i128:128-f80:128-n8:16:32:64-S128"
target triple = "x86_64-unknown-linux-gnu"

%"class.llvh::ArrayRef" = type { ptr, i64 }
%"class.llvh::MD5" = type { i32, i32, i32, i32, i32, i32, [64 x i8], [16 x i32] }

; Function Attrs: mustprogress nounwind uwtable
define linkonce_odr hidden void @_ZN4llvh8ArrayRefIhEC2EPKhm(ptr noundef nonnull align 8 dereferenceable(16) %this, ptr noundef %data, i64 noundef %length) unnamed_addr #0 comdat align 2 {
entry:
  %this.addr = alloca ptr, align 8
  %data.addr = alloca ptr, align 8
  %length.addr = alloca i64, align 8
  store ptr %this, ptr %this.addr, align 8
  store ptr %data, ptr %data.addr, align 8
  store i64 %length, ptr %length.addr, align 8
  %this1 = load ptr, ptr %this.addr, align 8
  %Data = getelementptr inbounds %"class.llvh::ArrayRef", ptr %this1, i32 0, i32 0
  %0 = load ptr, ptr %data.addr, align 8
  store ptr %0, ptr %Data, align 8
  %Length = getelementptr inbounds %"class.llvh::ArrayRef", ptr %this1, i32 0, i32 1
  %1 = load i64, ptr %length.addr, align 8
  store i64 %1, ptr %Length, align 8
  ret void
}

; Function Attrs: mustprogress nounwind uwtable
define linkonce_odr hidden { ptr, i64 } @_ZN4llvh12makeArrayRefIhEENS_8ArrayRefIT_EEPKS2_m(ptr noundef %data, i64 noundef %length) #0 comdat {
entry:
  %retval = alloca %"class.llvh::ArrayRef", align 8
  %data.addr = alloca ptr, align 8
  %length.addr = alloca i64, align 8
  store ptr %data, ptr %data.addr, align 8
  store i64 %length, ptr %length.addr, align 8
  %0 = load ptr, ptr %data.addr, align 8
  %1 = load i64, ptr %length.addr, align 8
  call void @_ZN4llvh8ArrayRefIhEC2EPKhm(ptr noundef nonnull align 8 dereferenceable(16) %retval, ptr noundef %0, i64 noundef %1)
  %2 = load { ptr, i64 }, ptr %retval, align 8
  ret { ptr, i64 } %2
}

; Function Attrs: mustprogress nounwind uwtable
define linkonce_odr hidden noundef i64 @_ZNK4llvh8ArrayRefIhE4sizeEv(ptr noundef nonnull align 8 dereferenceable(16) %this) #0 comdat align 2 {
entry:
  %this.addr = alloca ptr, align 8
  store ptr %this, ptr %this.addr, align 8
  %this1 = load ptr, ptr %this.addr, align 8
  %Length = getelementptr inbounds %"class.llvh::ArrayRef", ptr %this1, i32 0, i32 1
  %0 = load i64, ptr %Length, align 8
  ret i64 %0
}

; Function Attrs: mustprogress nounwind uwtable
define linkonce_odr hidden noundef ptr @_ZNK4llvh8ArrayRefIhE4dataEv(ptr noundef nonnull align 8 dereferenceable(16) %this) #0 comdat align 2 {
entry:
  %this.addr = alloca ptr, align 8
  store ptr %this, ptr %this.addr, align 8
  %this1 = load ptr, ptr %this.addr, align 8
  %Data = getelementptr inbounds %"class.llvh::ArrayRef", ptr %this1, i32 0, i32 0
  %0 = load ptr, ptr %Data, align 8
  ret ptr %0
}

; Function Attrs: mustprogress nounwind uwtable
define hidden void @_ZN4llvh3MD56updateENS_8ArrayRefIhEE(ptr noundef nonnull align 4 dereferenceable(152) %this, ptr %Data.coerce0, i64 %Data.coerce1) #0 align 2 {
entry:
  %Data = alloca %"class.llvh::ArrayRef", align 8
  %this.addr = alloca ptr, align 8
  %saved_lo = alloca i32, align 4
  %used = alloca i64, align 8
  %free = alloca i64, align 8
  %Ptr = alloca ptr, align 8
  %Size = alloca i64, align 8
  %agg.tmp = alloca %"class.llvh::ArrayRef", align 8
  %agg.tmp24 = alloca %"class.llvh::ArrayRef", align 8
  %0 = getelementptr inbounds { ptr, i64 }, ptr %Data, i32 0, i32 0
  store ptr %Data.coerce0, ptr %0, align 8
  %1 = getelementptr inbounds { ptr, i64 }, ptr %Data, i32 0, i32 1
  store i64 %Data.coerce1, ptr %1, align 8
  store ptr %this, ptr %this.addr, align 8
  %this1 = load ptr, ptr %this.addr, align 8
  %call = call noundef ptr @_ZNK4llvh8ArrayRefIhE4dataEv(ptr noundef nonnull align 8 dereferenceable(16) %Data)
  store ptr %call, ptr %Ptr, align 8
  %call2 = call noundef i64 @_ZNK4llvh8ArrayRefIhE4sizeEv(ptr noundef nonnull align 8 dereferenceable(16) %Data)
  store i64 %call2, ptr %Size, align 8
  %lo = getelementptr inbounds %"class.llvh::MD5", ptr %this1, i32 0, i32 5
  %2 = load i32, ptr %lo, align 4
  store i32 %2, ptr %saved_lo, align 4
  %3 = load i32, ptr %saved_lo, align 4
  %conv = zext i32 %3 to i64
  %4 = load i64, ptr %Size, align 8
  %add = add i64 %conv, %4
  %and = and i64 %add, 536870911
  %conv3 = trunc i64 %and to i32
  %lo4 = getelementptr inbounds %"class.llvh::MD5", ptr %this1, i32 0, i32 5
  store i32 %conv3, ptr %lo4, align 4
  %5 = load i32, ptr %saved_lo, align 4
  %cmp = icmp ult i32 %conv3, %5
  br i1 %cmp, label %if.then, label %if.end

if.then:                                          ; preds = %entry
  %hi = getelementptr inbounds %"class.llvh::MD5", ptr %this1, i32 0, i32 4
  %6 = load i32, ptr %hi, align 4
  %inc = add i32 %6, 1
  store i32 %inc, ptr %hi, align 4
  br label %if.end

if.end:                                           ; preds = %if.then, %entry
  %7 = load i64, ptr %Size, align 8
  %shr = lshr i64 %7, 29
  %hi5 = getelementptr inbounds %"class.llvh::MD5", ptr %this1, i32 0, i32 4
  %8 = load i32, ptr %hi5, align 4
  %conv6 = zext i32 %8 to i64
  %add7 = add i64 %conv6, %shr
  %conv8 = trunc i64 %add7 to i32
  store i32 %conv8, ptr %hi5, align 4
  %9 = load i32, ptr %saved_lo, align 4
  %and9 = and i32 %9, 63
  %conv10 = zext i32 %and9 to i64
  store i64 %conv10, ptr %used, align 8
  %10 = load i64, ptr %used, align 8
  %tobool = icmp ne i64 %10, 0
  br i1 %tobool, label %if.then11, label %if.end21

if.then11:                                        ; preds = %if.end
  %11 = load i64, ptr %used, align 8
  %sub = sub i64 64, %11
  store i64 %sub, ptr %free, align 8
  %12 = load i64, ptr %Size, align 8
  %13 = load i64, ptr %free, align 8
  %cmp12 = icmp ult i64 %12, %13
  br i1 %cmp12, label %if.then13, label %if.end14

if.then13:                                        ; preds = %if.then11
  %buffer = getelementptr inbounds %"class.llvh::MD5", ptr %this1, i32 0, i32 6
  %14 = load i64, ptr %used, align 8
  %arrayidx = getelementptr inbounds [64 x i8], ptr %buffer, i64 0, i64 %14
  %15 = load ptr, ptr %Ptr, align 8
  %16 = load i64, ptr %Size, align 8
  call void @llvm.memcpy.p0.p0.i64(ptr align 1 %arrayidx, ptr align 1 %15, i64 %16, i1 false)
  br label %return

if.end14:                                         ; preds = %if.then11
  %buffer15 = getelementptr inbounds %"class.llvh::MD5", ptr %this1, i32 0, i32 6
  %17 = load i64, ptr %used, align 8
  %arrayidx16 = getelementptr inbounds [64 x i8], ptr %buffer15, i64 0, i64 %17
  %18 = load ptr, ptr %Ptr, align 8
  %19 = load i64, ptr %free, align 8
  call void @llvm.memcpy.p0.p0.i64(ptr align 1 %arrayidx16, ptr align 1 %18, i64 %19, i1 false)
  %20 = load ptr, ptr %Ptr, align 8
  %21 = load i64, ptr %free, align 8
  %add.ptr = getelementptr inbounds i8, ptr %20, i64 %21
  store ptr %add.ptr, ptr %Ptr, align 8
  %22 = load i64, ptr %free, align 8
  %23 = load i64, ptr %Size, align 8
  %sub17 = sub i64 %23, %22
  store i64 %sub17, ptr %Size, align 8
  %buffer18 = getelementptr inbounds %"class.llvh::MD5", ptr %this1, i32 0, i32 6
  %arraydecay = getelementptr inbounds [64 x i8], ptr %buffer18, i64 0, i64 0
  %call19 = call { ptr, i64 } @_ZN4llvh12makeArrayRefIhEENS_8ArrayRefIT_EEPKS2_m(ptr noundef %arraydecay, i64 noundef 64)
  %24 = getelementptr inbounds { ptr, i64 }, ptr %agg.tmp, i32 0, i32 0
  %25 = extractvalue { ptr, i64 } %call19, 0
  store ptr %25, ptr %24, align 8
  %26 = getelementptr inbounds { ptr, i64 }, ptr %agg.tmp, i32 0, i32 1
  %27 = extractvalue { ptr, i64 } %call19, 1
  store i64 %27, ptr %26, align 8
  %28 = getelementptr inbounds { ptr, i64 }, ptr %agg.tmp, i32 0, i32 0
  %29 = load ptr, ptr %28, align 8
  %30 = getelementptr inbounds { ptr, i64 }, ptr %agg.tmp, i32 0, i32 1
  %31 = load i64, ptr %30, align 8
  %call20 = call noundef ptr @_ZN4llvh3MD54bodyENS_8ArrayRefIhEE(ptr noundef nonnull align 4 dereferenceable(152) %this1, ptr %29, i64 %31)
  br label %if.end21

if.end21:                                         ; preds = %if.end14, %if.end
  %32 = load i64, ptr %Size, align 8
  %cmp22 = icmp uge i64 %32, 64
  br i1 %cmp22, label %if.then23, label %if.end29

if.then23:                                        ; preds = %if.end21
  %33 = load ptr, ptr %Ptr, align 8
  %34 = load i64, ptr %Size, align 8
  %and25 = and i64 %34, -64
  %call26 = call { ptr, i64 } @_ZN4llvh12makeArrayRefIhEENS_8ArrayRefIT_EEPKS2_m(ptr noundef %33, i64 noundef %and25)
  %35 = getelementptr inbounds { ptr, i64 }, ptr %agg.tmp24, i32 0, i32 0
  %36 = extractvalue { ptr, i64 } %call26, 0
  store ptr %36, ptr %35, align 8
  %37 = getelementptr inbounds { ptr, i64 }, ptr %agg.tmp24, i32 0, i32 1
  %38 = extractvalue { ptr, i64 } %call26, 1
  store i64 %38, ptr %37, align 8
  %39 = getelementptr inbounds { ptr, i64 }, ptr %agg.tmp24, i32 0, i32 0
  %40 = load ptr, ptr %39, align 8
  %41 = getelementptr inbounds { ptr, i64 }, ptr %agg.tmp24, i32 0, i32 1
  %42 = load i64, ptr %41, align 8
  %call27 = call noundef ptr @_ZN4llvh3MD54bodyENS_8ArrayRefIhEE(ptr noundef nonnull align 4 dereferenceable(152) %this1, ptr %40, i64 %42)
  store ptr %call27, ptr %Ptr, align 8
  %43 = load i64, ptr %Size, align 8
  %and28 = and i64 %43, 63
  store i64 %and28, ptr %Size, align 8
  br label %if.end29

if.end29:                                         ; preds = %if.then23, %if.end21
  %buffer30 = getelementptr inbounds %"class.llvh::MD5", ptr %this1, i32 0, i32 6
  %arraydecay31 = getelementptr inbounds [64 x i8], ptr %buffer30, i64 0, i64 0
  %44 = load ptr, ptr %Ptr, align 8
  %45 = load i64, ptr %Size, align 8
  call void @llvm.memcpy.p0.p0.i64(ptr align 4 %arraydecay31, ptr align 1 %44, i64 %45, i1 false)
  br label %return

return:                                           ; preds = %if.end29, %if.then13
  ret void
}