; Function Attrs: mustprogress nofree norecurse nosync nounwind memory(readwrite, inaccessiblemem: none) uwtable
define hidden void @_ZN4llvh3MD56updateENS_8ArrayRefIhEE(ptr noundef nonnull align 4 dereferenceable(152) %this, ptr %Data.coerce0, i64 %Data.coerce1) local_unnamed_addr #2 align 2 {
entry:
  %lo = getelementptr inbounds i8, ptr %this, i64 20
  %0 = load i32, ptr %lo, align 4
  %1 = trunc i64 %Data.coerce1 to i32
  %2 = add i32 %0, %1
  %conv3 = and i32 %2, 536870911
  store i32 %conv3, ptr %lo, align 4
  %cmp = icmp ult i32 %conv3, %0
  %hi = getelementptr inbounds i8, ptr %this, i64 16
  %3 = load i32, ptr %hi, align 4
  %inc = zext i1 %cmp to i32
  %4 = add i32 %3, %inc
  %shr = lshr i64 %Data.coerce1, 29
  %hi5 = getelementptr inbounds i8, ptr %this, i64 16
  %5 = trunc i64 %shr to i32
  %conv8 = add i32 %4, %5
  store i32 %conv8, ptr %hi5, align 4
  %and9 = and i32 %0, 63
  %tobool.not = icmp eq i32 %and9, 0
  br i1 %tobool.not, label %if.end21, label %if.then11

if.then11:                                        ; preds = %entry
  %conv10 = zext nneg i32 %and9 to i64
  %sub = sub nuw nsw i64 64, %conv10
  %cmp12 = icmp ugt i64 %sub, %Data.coerce1
  %buffer = getelementptr inbounds i8, ptr %this, i64 24
  %arrayidx = getelementptr inbounds [64 x i8], ptr %buffer, i64 0, i64 %conv10
  br i1 %cmp12, label %if.then13, label %if.end14

if.then13:                                        ; preds = %if.then11
  tail call void @llvm.memcpy.p0.p0.i64(ptr nonnull align 1 %arrayidx, ptr align 1 %Data.coerce0, i64 %Data.coerce1, i1 false)
  br label %return

if.end14:                                         ; preds = %if.then11
  tail call void @llvm.memcpy.p0.p0.i64(ptr noundef nonnull align 1 dereferenceable(1) %arrayidx, ptr noundef nonnull align 1 dereferenceable(1) %Data.coerce0, i64 %sub, i1 false)
  %add.ptr = getelementptr inbounds i8, ptr %Data.coerce0, i64 %sub
  %sub17 = sub i64 %Data.coerce1, %sub
  %call20 = tail call noundef ptr @_ZN4llvh3MD54bodyENS_8ArrayRefIhEE(ptr noundef nonnull align 4 dereferenceable(152) %this, ptr nonnull %buffer, i64 64)
  br label %if.end21

if.end21:                                         ; preds = %if.end14, %entry
  %Size.0 = phi i64 [ %sub17, %if.end14 ], [ %Data.coerce1, %entry ]
  %Ptr.0 = phi ptr [ %add.ptr, %if.end14 ], [ %Data.coerce0, %entry ]
  %cmp22 = icmp ugt i64 %Size.0, 63
  br i1 %cmp22, label %if.then23, label %if.end29

if.then23:                                        ; preds = %if.end21
  %and25 = and i64 %Size.0, -64
  %call27 = tail call noundef ptr @_ZN4llvh3MD54bodyENS_8ArrayRefIhEE(ptr noundef nonnull align 4 dereferenceable(152) %this, ptr %Ptr.0, i64 %and25)
  %and28 = and i64 %Size.0, 63
  br label %if.end29

if.end29:                                         ; preds = %if.then23, %if.end21
  %Size.1 = phi i64 [ %and28, %if.then23 ], [ %Size.0, %if.end21 ]
  %Ptr.1 = phi ptr [ %call27, %if.then23 ], [ %Ptr.0, %if.end21 ]
  %buffer30 = getelementptr inbounds i8, ptr %this, i64 24
  tail call void @llvm.memcpy.p0.p0.i64(ptr nonnull align 4 %buffer30, ptr align 1 %Ptr.1, i64 %Size.1, i1 false)
  br label %return

return:                                           ; preds = %if.end29, %if.then13
  ret void
}